; Function Attrs: nounwind uwtable
define hidden ptr @jMechParamToCKMechParamPtr(ptr noundef %0, ptr noundef %1, i64 noundef %2, ptr noundef %3) local_unnamed_addr #0 {
  %5 = alloca ptr, align 8
  %6 = icmp eq ptr %1, null
  br i1 %6, label %7, label %8

7:                                                ; preds = %4
  store i64 0, ptr %3, align 8
  br label %25

8:                                                ; preds = %4
  %9 = load ptr, ptr %0, align 8
  %10 = getelementptr inbounds i8, ptr %9, i64 256
  %11 = load ptr, ptr %10, align 8
  %12 = load ptr, ptr @jByteArrayClass, align 8
  %13 = tail call zeroext i8 %11(ptr noundef nonnull %0, ptr noundef nonnull %1, ptr noundef %12) #8
  %.not = icmp eq i8 %13, 0
  br i1 %.not, label %15, label %14

14:                                               ; preds = %8
  call void @jByteArrayToCKByteArray(ptr noundef nonnull %0, ptr noundef nonnull %1, ptr noundef nonnull %5, ptr noundef %3) #8
  %.pre = load ptr, ptr %5, align 8
  br label %25

15:                                               ; preds = %8
  %16 = load ptr, ptr %0, align 8
  %17 = getelementptr inbounds i8, ptr %16, i64 256
  %18 = load ptr, ptr %17, align 8
  %19 = load ptr, ptr @jLongClass, align 8
  %20 = tail call zeroext i8 %18(ptr noundef nonnull %0, ptr noundef nonnull %1, ptr noundef %19) #8
  %.not17 = icmp eq i8 %20, 0
  br i1 %.not17, label %23, label %21

21:                                               ; preds = %15
  %22 = tail call ptr @jLongObjectToCKULongPtr(ptr noundef nonnull %0, ptr noundef nonnull %1) #8
  store i64 8, ptr %3, align 8
  br label %25

23:                                               ; preds = %15
  %24 = tail call ptr @jMechParamToCKMechParamPtrSlow(ptr noundef nonnull %0, ptr noundef nonnull %1, i64 noundef %2, ptr noundef %3)
  br label %25

25:                                               ; preds = %14, %23, %21, %7
  %26 = phi ptr [ %.pre, %14 ], [ %24, %23 ], [ %22, %21 ], [ null, %7 ]
  ret ptr %26
}